target datalayout = "e-m:e-p270:32:32-p271:32:32-p272:64:64-i64:64-i128:128-f80:128-n8:16:32:64-S128"
target triple = "x86_64-pc-linux-gnu"

%"struct.sentencepiece::bpe::Trainer::Symbol" = type { ptr, ptr, %"class.std::vector", i8, i64, i64, %"class.std::set" }
%"class.std::vector" = type { %"struct.std::_Vector_base" }
%"struct.std::_Vector_base" = type { %"struct.std::_Vector_base<unsigned int, std::allocator<unsigned int>>::_Vector_impl" }
%"struct.std::_Vector_base<unsigned int, std::allocator<unsigned int>>::_Vector_impl" = type { %"struct.std::_Vector_base<unsigned int, std::allocator<unsigned int>>::_Vector_impl_data" }
%"struct.std::_Vector_base<unsigned int, std::allocator<unsigned int>>::_Vector_impl_data" = type { ptr, ptr, ptr }
%"class.std::set" = type { %"class.std::_Rb_tree" }
%"class.std::_Rb_tree" = type { %"struct.std::_Rb_tree<unsigned long, unsigned long, std::_Identity<unsigned long>, std::less<unsigned long>>::_Rb_tree_impl" }
%"struct.std::_Rb_tree<unsigned long, unsigned long, std::_Identity<unsigned long>, std::less<unsigned long>>::_Rb_tree_impl" = type { %"struct.std::_Rb_tree_key_compare", %"struct.std::_Rb_tree_header" }
%"struct.std::_Rb_tree_key_compare" = type { %"struct.std::less" }
%"struct.std::less" = type { i8 }
%"struct.std::_Rb_tree_header" = type { %"struct.std::_Rb_tree_node_base", i64 }
%"struct.std::_Rb_tree_node_base" = type { i32, ptr, ptr, ptr }
%"class.sentencepiece::TrainerInterface" = type { ptr, %"class.std::unordered_map", %"class.std::vector.12", %"class.std::vector.17", %"class.sentencepiece::TrainerSpec", %"class.sentencepiece::NormalizerSpec", %"class.sentencepiece::NormalizerSpec", %"class.std::map", %"class.sentencepiece::util::Status", ptr, ptr, %"class.std::vector.32" }
%"class.std::unordered_map" = type { %"class.std::_Hashtable" }
%"class.std::_Hashtable" = type { ptr, i64, %"struct.std::__detail::_Hash_node_base", i64, %"struct.std::__detail::_Prime_rehash_policy", ptr }
%"struct.std::__detail::_Hash_node_base" = type { ptr }
%"struct.std::__detail::_Prime_rehash_policy" = type { float, i64 }
%"class.std::vector.12" = type { %"struct.std::_Vector_base.13" }
%"struct.std::_Vector_base.13" = type { %"struct.std::_Vector_base<std::pair<std::__cxx11::basic_string<char>, float>, std::allocator<std::pair<std::__cxx11::basic_string<char>, float>>>::_Vector_impl" }
%"struct.std::_Vector_base<std::pair<std::__cxx11::basic_string<char>, float>, std::allocator<std::pair<std::__cxx11::basic_string<char>, float>>>::_Vector_impl" = type { %"struct.std::_Vector_base<std::pair<std::__cxx11::basic_string<char>, float>, std::allocator<std::pair<std::__cxx11::basic_string<char>, float>>>::_Vector_impl_data" }
%"struct.std::_Vector_base<std::pair<std::__cxx11::basic_string<char>, float>, std::allocator<std::pair<std::__cxx11::basic_string<char>, float>>>::_Vector_impl_data" = type { ptr, ptr, ptr }
%"class.std::vector.17" = type { %"struct.std::_Vector_base.18" }
%"struct.std::_Vector_base.18" = type { %"struct.std::_Vector_base<std::pair<std::__cxx11::basic_string<char>, long>, std::allocator<std::pair<std::__cxx11::basic_string<char>, long>>>::_Vector_impl" }
%"struct.std::_Vector_base<std::pair<std::__cxx11::basic_string<char>, long>, std::allocator<std::pair<std::__cxx11::basic_string<char>, long>>>::_Vector_impl" = type { %"struct.std::_Vector_base<std::pair<std::__cxx11::basic_string<char>, long>, std::allocator<std::pair<std::__cxx11::basic_string<char>, long>>>::_Vector_impl_data" }
%"struct.std::_Vector_base<std::pair<std::__cxx11::basic_string<char>, long>, std::allocator<std::pair<std::__cxx11::basic_string<char>, long>>>::_Vector_impl_data" = type { ptr, ptr, ptr }
%"class.sentencepiece::TrainerSpec" = type { %"class.google::protobuf::MessageLite", %"class.google::protobuf::internal::ExtensionSet", %"class.google::protobuf::internal::HasBits", %"class.google::protobuf::internal::CachedSize", %"class.google::protobuf::RepeatedPtrField", %"class.google::protobuf::RepeatedPtrField", %"class.google::protobuf::RepeatedPtrField", %"class.google::protobuf::RepeatedPtrField", %"struct.google::protobuf::internal::ArenaStringPtr", %"struct.google::protobuf::internal::ArenaStringPtr", %"struct.google::protobuf::internal::ArenaStringPtr", %"struct.google::protobuf::internal::ArenaStringPtr", %"struct.google::protobuf::internal::ArenaStringPtr", %"struct.google::protobuf::internal::ArenaStringPtr", %"struct.google::protobuf::internal::ArenaStringPtr", %"struct.google::protobuf::internal::ArenaStringPtr", %"struct.google::protobuf::internal::ArenaStringPtr", %"struct.google::protobuf::internal::ArenaStringPtr", i32, i32, i64, i32, i8, i8, i8, i8, i8, i8, i8, i32, float, i64, i32, i32, float, i32, float, i32, i32, i32, i32, i8, i8, i8, i8, i8, i8, i32, i32, i32 }
%"class.google::protobuf::MessageLite" = type { ptr, %"class.google::protobuf::internal::InternalMetadata" }
%"class.google::protobuf::internal::InternalMetadata" = type { ptr }
%"class.google::protobuf::internal::ExtensionSet" = type { ptr, i16, i16, %"union.google::protobuf::internal::ExtensionSet::AllocatedData" }
%"union.google::protobuf::internal::ExtensionSet::AllocatedData" = type { ptr }
%"class.google::protobuf::internal::HasBits" = type { [2 x i32] }
%"class.google::protobuf::internal::CachedSize" = type { %"struct.std::atomic" }
%"struct.std::atomic" = type { %"struct.std::__atomic_base" }
%"struct.std::__atomic_base" = type { i32 }
%"class.google::protobuf::RepeatedPtrField" = type { %"class.google::protobuf::internal::RepeatedPtrFieldBase" }
%"class.google::protobuf::internal::RepeatedPtrFieldBase" = type { ptr, i32, i32, ptr }
%"struct.google::protobuf::internal::ArenaStringPtr" = type { %"class.google::protobuf::internal::TaggedPtr" }
%"class.google::protobuf::internal::TaggedPtr" = type { ptr }
%"class.sentencepiece::NormalizerSpec" = type <{ %"class.google::protobuf::MessageLite", %"class.google::protobuf::internal::ExtensionSet", %"class.google::protobuf::internal::HasBits.22", %"class.google::protobuf::internal::CachedSize", %"struct.google::protobuf::internal::ArenaStringPtr", %"struct.google::protobuf::internal::ArenaStringPtr", %"struct.google::protobuf::internal::ArenaStringPtr", i8, i8, i8, [5 x i8] }>
%"class.google::protobuf::internal::HasBits.22" = type { [1 x i32] }
%"class.std::map" = type { %"class.std::_Rb_tree.23" }
%"class.std::_Rb_tree.23" = type { %"struct.std::_Rb_tree<int, std::pair<const int, std::pair<std::__cxx11::basic_string<char>, sentencepiece::ModelProto_SentencePiece_Type>>, std::_Select1st<std::pair<const int, std::pair<std::__cxx11::basic_string<char>, sentencepiece::ModelProto_SentencePiece_Type>>>, std::less<int>>::_Rb_tree_impl" }
%"struct.std::_Rb_tree<int, std::pair<const int, std::pair<std::__cxx11::basic_string<char>, sentencepiece::ModelProto_SentencePiece_Type>>, std::_Select1st<std::pair<const int, std::pair<std::__cxx11::basic_string<char>, sentencepiece::ModelProto_SentencePiece_Type>>>, std::less<int>>::_Rb_tree_impl" = type { %"struct.std::_Rb_tree_key_compare.27", %"struct.std::_Rb_tree_header" }
%"struct.std::_Rb_tree_key_compare.27" = type { %"struct.std::less.28" }
%"struct.std::less.28" = type { i8 }
%"class.sentencepiece::util::Status" = type { %"class.std::unique_ptr" }
%"class.std::unique_ptr" = type { %"struct.std::__uniq_ptr_data" }
%"struct.std::__uniq_ptr_data" = type { %"class.std::__uniq_ptr_impl" }
%"class.std::__uniq_ptr_impl" = type { %"class.std::tuple" }
%"class.std::tuple" = type { %"struct.std::_Tuple_impl" }
%"struct.std::_Tuple_impl" = type { %"struct.std::_Head_base.31" }
%"struct.std::_Head_base.31" = type { ptr }
%"class.std::vector.32" = type { %"struct.std::_Vector_base.33" }
%"struct.std::_Vector_base.33" = type { %"struct.std::_Vector_base<std::__cxx11::basic_string<char>, std::allocator<std::__cxx11::basic_string<char>>>::_Vector_impl" }
%"struct.std::_Vector_base<std::__cxx11::basic_string<char>, std::allocator<std::__cxx11::basic_string<char>>>::_Vector_impl" = type { %"struct.std::_Vector_base<std::__cxx11::basic_string<char>, std::allocator<std::__cxx11::basic_string<char>>>::_Vector_impl_data" }
%"struct.std::_Vector_base<std::__cxx11::basic_string<char>, std::allocator<std::__cxx11::basic_string<char>>>::_Vector_impl_data" = type { ptr, ptr, ptr }
%"class.sentencepiece::bpe::Trainer" = type { %"class.sentencepiece::TrainerInterface", %"class.std::unordered_map.37", %"class.std::set.56", %"class.std::vector.64", %"class.std::vector.69" }
%"class.std::unordered_map.37" = type { %"class.std::_Hashtable.38" }
%"class.std::_Hashtable.38" = type { ptr, i64, %"struct.std::__detail::_Hash_node_base", i64, %"struct.std::__detail::_Prime_rehash_policy", ptr }
%"class.std::set.56" = type { %"class.std::_Rb_tree.57" }
%"class.std::_Rb_tree.57" = type { %"struct.std::_Rb_tree<sentencepiece::bpe::Trainer::Symbol *, sentencepiece::bpe::Trainer::Symbol *, std::_Identity<sentencepiece::bpe::Trainer::Symbol *>, std::less<sentencepiece::bpe::Trainer::Symbol *>>::_Rb_tree_impl" }
%"struct.std::_Rb_tree<sentencepiece::bpe::Trainer::Symbol *, sentencepiece::bpe::Trainer::Symbol *, std::_Identity<sentencepiece::bpe::Trainer::Symbol *>, std::less<sentencepiece::bpe::Trainer::Symbol *>>::_Rb_tree_impl" = type { %"struct.std::_Rb_tree_key_compare.61", %"struct.std::_Rb_tree_header" }
%"struct.std::_Rb_tree_key_compare.61" = type { %"struct.std::less.62" }
%"struct.std::less.62" = type { i8 }
%"class.std::vector.64" = type { %"struct.std::_Vector_base.65" }
%"struct.std::_Vector_base.65" = type { %"struct.std::_Vector_base<sentencepiece::bpe::Trainer::Symbol *, std::allocator<sentencepiece::bpe::Trainer::Symbol *>>::_Vector_impl" }
%"struct.std::_Vector_base<sentencepiece::bpe::Trainer::Symbol *, std::allocator<sentencepiece::bpe::Trainer::Symbol *>>::_Vector_impl" = type { %"struct.std::_Vector_base<sentencepiece::bpe::Trainer::Symbol *, std::allocator<sentencepiece::bpe::Trainer::Symbol *>>::_Vector_impl_data" }
%"struct.std::_Vector_base<sentencepiece::bpe::Trainer::Symbol *, std::allocator<sentencepiece::bpe::Trainer::Symbol *>>::_Vector_impl_data" = type { ptr, ptr, ptr }
%"class.std::vector.69" = type { %"struct.std::_Vector_base.70" }
%"struct.std::_Vector_base.70" = type { %"struct.std::_Vector_base<std::vector<sentencepiece::bpe::Trainer::Symbol *>, std::allocator<std::vector<sentencepiece::bpe::Trainer::Symbol *>>>::_Vector_impl" }
%"struct.std::_Vector_base<std::vector<sentencepiece::bpe::Trainer::Symbol *>, std::allocator<std::vector<sentencepiece::bpe::Trainer::Symbol *>>>::_Vector_impl" = type { %"struct.std::_Vector_base<std::vector<sentencepiece::bpe::Trainer::Symbol *>, std::allocator<std::vector<sentencepiece::bpe::Trainer::Symbol *>>>::_Vector_impl_data" }
%"struct.std::_Vector_base<std::vector<sentencepiece::bpe::Trainer::Symbol *>, std::allocator<std::vector<sentencepiece::bpe::Trainer::Symbol *>>>::_Vector_impl_data" = type { ptr, ptr, ptr }

; Function Attrs: mustprogress nounwind uwtable
define linkonce_odr noundef nonnull align 8 dereferenceable(8) ptr @_ZNSt6vectorIPN13sentencepiece3bpe7Trainer6SymbolESaIS4_EEixEm(ptr noundef nonnull align 8 dereferenceable(24) %0, i64 noundef %1) #5 comdat align 2 {
  %3 = alloca ptr, align 8
  %4 = alloca i64, align 8
  store ptr %0, ptr %3, align 8
  store i64 %1, ptr %4, align 8
  %5 = load ptr, ptr %3, align 8
  %6 = getelementptr inbounds %"struct.std::_Vector_base.65", ptr %5, i32 0, i32 0
  %7 = getelementptr inbounds %"struct.std::_Vector_base<sentencepiece::bpe::Trainer::Symbol *, std::allocator<sentencepiece::bpe::Trainer::Symbol *>>::_Vector_impl_data", ptr %6, i32 0, i32 0
  %8 = load ptr, ptr %7, align 8
  %9 = load i64, ptr %4, align 8
  %10 = getelementptr inbounds ptr, ptr %8, i64 %9
  ret ptr %10
}

; Function Attrs: mustprogress nounwind uwtable
define linkonce_odr noundef nonnull align 8 dereferenceable(24) ptr @_ZNSt6vectorIS_IPN13sentencepiece3bpe7Trainer6SymbolESaIS4_EESaIS6_EEixEm(ptr noundef nonnull align 8 dereferenceable(24) %0, i64 noundef %1) #5 comdat align 2 {
  %3 = alloca ptr, align 8
  %4 = alloca i64, align 8
  store ptr %0, ptr %3, align 8
  store i64 %1, ptr %4, align 8
  %5 = load ptr, ptr %3, align 8
  %6 = getelementptr inbounds %"struct.std::_Vector_base.70", ptr %5, i32 0, i32 0
  %7 = getelementptr inbounds %"struct.std::_Vector_base<std::vector<sentencepiece::bpe::Trainer::Symbol *>, std::allocator<std::vector<sentencepiece::bpe::Trainer::Symbol *>>>::_Vector_impl_data", ptr %6, i32 0, i32 0
  %8 = load ptr, ptr %7, align 8
  %9 = load i64, ptr %4, align 8
  %10 = getelementptr inbounds %"class.std::vector.64", ptr %8, i64 %9
  ret ptr %10
}

; Function Attrs: mustprogress uwtable
define void @_ZN13sentencepiece3bpe7Trainer9ResetFreqEiiiPKNS1_6SymbolE(ptr noundef nonnull align 8 dereferenceable(856) %0, i32 noundef %1, i32 noundef %2, i32 noundef %3, ptr noundef %4) #4 align 2 {
  %6 = alloca ptr, align 8
  %7 = alloca i32, align 4
  %8 = alloca i32, align 4
  %9 = alloca i32, align 4
  %10 = alloca ptr, align 8
  %11 = alloca ptr, align 8
  store ptr %0, ptr %6, align 8
  store i32 %1, ptr %7, align 4
  store i32 %2, ptr %8, align 4
  store i32 %3, ptr %9, align 4
  store ptr %4, ptr %10, align 8
  %12 = load ptr, ptr %6, align 8
  %13 = load i32, ptr %8, align 4
  %14 = icmp eq i32 %13, -1
  br i1 %14, label %18, label %15

15:                                               ; preds = %5
  %16 = load i32, ptr %9, align 4
  %17 = icmp eq i32 %16, -1
  br i1 %17, label %18, label %19

18:                                               ; preds = %15, %5
  br label %46

19:                                               ; preds = %15
  %20 = getelementptr inbounds %"class.sentencepiece::bpe::Trainer", ptr %12, i32 0, i32 4
  %21 = load i32, ptr %7, align 4
  %22 = sext i32 %21 to i64
  %23 = call noundef nonnull align 8 dereferenceable(24) ptr @_ZNSt6vectorIS_IPN13sentencepiece3bpe7Trainer6SymbolESaIS4_EESaIS6_EEixEm(ptr noundef nonnull align 8 dereferenceable(24) %20, i64 noundef %22) #3
  %24 = load i32, ptr %8, align 4
  %25 = sext i32 %24 to i64
  %26 = call noundef nonnull align 8 dereferenceable(8) ptr @_ZNSt6vectorIPN13sentencepiece3bpe7Trainer6SymbolESaIS4_EEixEm(ptr noundef nonnull align 8 dereferenceable(24) %23, i64 noundef %25) #3
  %27 = load ptr, ptr %26, align 8
  %28 = getelementptr inbounds %"class.sentencepiece::bpe::Trainer", ptr %12, i32 0, i32 4
  %29 = load i32, ptr %7, align 4
  %30 = sext i32 %29 to i64
  %31 = call noundef nonnull align 8 dereferenceable(24) ptr @_ZNSt6vectorIS_IPN13sentencepiece3bpe7Trainer6SymbolESaIS4_EESaIS6_EEixEm(ptr noundef nonnull align 8 dereferenceable(24) %28, i64 noundef %30) #3
  %32 = load i32, ptr %9, align 4
  %33 = sext i32 %32 to i64
  %34 = call noundef nonnull align 8 dereferenceable(8) ptr @_ZNSt6vectorIPN13sentencepiece3bpe7Trainer6SymbolESaIS4_EEixEm(ptr noundef nonnull align 8 dereferenceable(24) %31, i64 noundef %33) #3
  %35 = load ptr, ptr %34, align 8
  %36 = call noundef ptr @_ZN13sentencepiece3bpe7Trainer13GetPairSymbolEPKNS1_6SymbolES4_(ptr noundef nonnull align 8 dereferenceable(856) %12, ptr noundef %27, ptr noundef %35)
  store ptr %36, ptr %11, align 8
  %37 = load ptr, ptr %11, align 8
  %38 = icmp ne ptr %37, null
  br i1 %38, label %39, label %46

39:                                               ; preds = %19
  %40 = load ptr, ptr %11, align 8
  %41 = load ptr, ptr %10, align 8
  %42 = icmp ne ptr %40, %41
  br i1 %42, label %43, label %46

43:                                               ; preds = %39
  %44 = load ptr, ptr %11, align 8
  %45 = getelementptr inbounds %"struct.sentencepiece::bpe::Trainer::Symbol", ptr %44, i32 0, i32 5
  store i64 0, ptr %45, align 8
  br label %46

46:                                               ; preds = %43, %39, %19, %18
  ret void
}