; Function Attrs: mustprogress uwtable
define void @_ZN13sentencepiece3bpe7Trainer9ResetFreqEiiiPKNS1_6SymbolE(ptr noundef nonnull align 8 dereferenceable(856) %0, i32 noundef %1, i32 noundef %2, i32 noundef %3, ptr noundef readnone %4) local_unnamed_addr #3 align 2 {
  %6 = icmp eq i32 %2, -1
  %7 = icmp eq i32 %3, -1
  %or.cond = or i1 %6, %7
  br i1 %or.cond, label %23, label %8

8:                                                ; preds = %5
  %9 = getelementptr inbounds i8, ptr %0, i64 832
  %10 = sext i32 %1 to i64
  %11 = load ptr, ptr %9, align 8
  %12 = getelementptr inbounds %"class.std::vector.64", ptr %11, i64 %10
  %13 = sext i32 %2 to i64
  %14 = load ptr, ptr %12, align 8
  %15 = getelementptr inbounds ptr, ptr %14, i64 %13
  %16 = load ptr, ptr %15, align 8
  %17 = sext i32 %3 to i64
  %18 = getelementptr inbounds ptr, ptr %14, i64 %17
  %19 = load ptr, ptr %18, align 8
  %20 = tail call noundef ptr @_ZN13sentencepiece3bpe7Trainer13GetPairSymbolEPKNS1_6SymbolES4_(ptr noundef nonnull align 8 dereferenceable(856) %0, ptr noundef %16, ptr noundef %19)
  %.not = icmp eq ptr %20, null
  %.not13 = icmp eq ptr %20, %4
  %or.cond14 = or i1 %.not, %.not13
  br i1 %or.cond14, label %23, label %21

21:                                               ; preds = %8
  %22 = getelementptr inbounds i8, ptr %20, i64 56
  store i64 0, ptr %22, align 8
  br label %23

23:                                               ; preds = %5, %21, %8
  ret void
}